; ModuleID = 'source-C-CXX/59/140.c'
source_filename = "source-C-CXX/59/140.c"
target datalayout = "e-m:e-p270:32:32-p271:32:32-p272:64:64-i64:64-f80:128-n8:16:32:64-S128"
target triple = "x86_64-pc-linux-gnu"

@.str = private unnamed_addr constant [3 x i8] c"%d\00", align 1
@.str.1 = private unnamed_addr constant [6 x i8] c"empty\00", align 1
@.str.2 = private unnamed_addr constant [7 x i8] c"%d %d\0A\00", align 1

; Function Attrs: nofree nounwind sspstrong uwtable
define dso_local void @main() local_unnamed_addr #0 {
  %1 = alloca i32, align 4
  %2 = bitcast i32* %1 to i8*
  call void @llvm.lifetime.start.p0i8(i64 4, i8* nonnull %2) #3
  %3 = call i32 (i8*, ...) @__isoc99_scanf(i8* getelementptr inbounds ([3 x i8], [3 x i8]* @.str, i64 0, i64 0), i32* nonnull %1)
  %4 = load i32, i32* %1, align 4, !tbaa !5
  %5 = icmp slt i32 %4, 5
  br i1 %5, label %6, label %10

6:                                                ; preds = %0
  %7 = call i32 (i8*, ...) @printf(i8* nonnull dereferenceable(1) getelementptr inbounds ([6 x i8], [6 x i8]* @.str.1, i64 0, i64 0))
  %8 = load i32, i32* %1, align 4, !tbaa !5
  %9 = icmp sgt i32 %8, 3
  br i1 %9, label %10, label %52

10:                                               ; preds = %0, %6
  %11 = phi i32 [ %4, %0 ], [ %8, %6 ]
  br label %12

12:                                               ; preds = %10, %46
  %13 = phi i32 [ %47, %46 ], [ %11, %10 ]
  %14 = phi i32 [ %51, %46 ], [ 0, %10 ]
  %15 = phi i32 [ %48, %46 ], [ 2, %10 ]
  %16 = icmp ugt i32 %15, 2
  br i1 %16, label %17, label %26

17:                                               ; preds = %12, %22
  %18 = phi i32 [ %23, %22 ], [ 0, %12 ]
  %19 = phi i32 [ %24, %22 ], [ 2, %12 ]
  %20 = urem i32 %15, %19
  %21 = icmp eq i32 %20, 0
  br i1 %21, label %26, label %22

22:                                               ; preds = %17
  %23 = add nuw nsw i32 %18, 1
  %24 = add nuw nsw i32 %19, 1
  %25 = icmp eq i32 %23, %14
  br i1 %25, label %26, label %17, !llvm.loop !9

26:                                               ; preds = %22, %17, %12
  %27 = phi i32 [ 0, %12 ], [ %18, %17 ], [ %14, %22 ]
  %28 = add nsw i32 %15, -2
  %29 = icmp eq i32 %27, %28
  br i1 %29, label %30, label %46

30:                                               ; preds = %26
  %31 = add nuw nsw i32 %15, 2
  br label %32

32:                                               ; preds = %30, %37
  %33 = phi i32 [ 0, %30 ], [ %38, %37 ]
  %34 = phi i32 [ 2, %30 ], [ %39, %37 ]
  %35 = urem i32 %31, %34
  %36 = icmp eq i32 %35, 0
  br i1 %36, label %41, label %37

37:                                               ; preds = %32
  %38 = add nuw nsw i32 %33, 1
  %39 = add nuw nsw i32 %34, 1
  %40 = icmp eq i32 %38, %15
  br i1 %40, label %43, label %32, !llvm.loop !11

41:                                               ; preds = %32
  %42 = icmp eq i32 %33, %15
  br i1 %42, label %43, label %46

43:                                               ; preds = %37, %41
  %44 = call i32 (i8*, ...) @printf(i8* nonnull dereferenceable(1) getelementptr inbounds ([7 x i8], [7 x i8]* @.str.2, i64 0, i64 0), i32 %15, i32 %31)
  %45 = load i32, i32* %1, align 4, !tbaa !5
  br label %46

46:                                               ; preds = %41, %43, %26
  %47 = phi i32 [ %13, %41 ], [ %45, %43 ], [ %13, %26 ]
  %48 = add nuw nsw i32 %15, 1
  %49 = add nsw i32 %47, -1
  %50 = icmp slt i32 %48, %49
  %51 = add nuw nsw i32 %14, 1
  br i1 %50, label %12, label %52, !llvm.loop !12

52:                                               ; preds = %46, %6
  call void @llvm.lifetime.end.p0i8(i64 4, i8* nonnull %2) #3
  ret void
}

; Function Attrs: argmemonly mustprogress nofree nosync nounwind willreturn
declare void @llvm.lifetime.start.p0i8(i64 immarg, i8* nocapture) #1

; Function Attrs: nofree nounwind
declare noundef i32 @__isoc99_scanf(i8* nocapture noundef readonly, ...) local_unnamed_addr #2

; Function Attrs: nofree nounwind
declare noundef i32 @printf(i8* nocapture noundef readonly, ...) local_unnamed_addr #2

; Function Attrs: argmemonly mustprogress nofree nosync nounwind willreturn
declare void @llvm.lifetime.end.p0i8(i64 immarg, i8* nocapture) #1


!llvm.module.flags = !{!0, !1, !2, !3}
!llvm.ident = !{!4}

!0 = !{i32 1, !"wchar_size", i32 4}
!1 = !{i32 7, !"PIC Level", i32 2}
!2 = !{i32 7, !"PIE Level", i32 2}
!3 = !{i32 7, !"uwtable", i32 1}
!4 = !{!"clang version 13.0.0"}
!5 = !{!6, !6, i64 0}
!6 = !{!"int", !7, i64 0}
!7 = !{!"omnipotent char", !8, i64 0}
!8 = !{!"Simple C/C++ TBAA"}
!9 = distinct !{!9, !10}
!10 = !{!"llvm.loop.mustprogress"}
!11 = distinct !{!11, !10}
!12 = distinct !{!12, !10}
